(lp0
(lp1
F2.5580684785945778
aF3.28215526136952
aF1.6655879627962396
aF-3.5297954642152995
aF1.8654613135867386
aF2.956422927329104
aa(lp2
F2.507049152614684
aF3.17113224046916
aF1.5207046482074027
aF-3.5421053883592504
aF1.9817959945814394
aF2.6796310248492325
aa(lp3
F2.8823091243826084
aF3.227870824317768
aF1.1699649562518575
aF-4.417685411305026
aF1.9542093141032204
aF3.288374428139922
aa(lp4
F2.554938363951903
aF3.3852676260660894
aF1.8092520494335886
aF-3.5485221732967833
aF1.62457196157718
aF2.466406861972108
aa(lp5
F2.9006444087846575
aF3.1795219722793986
aF0.9900758851573279
aF-4.625265986345628
aF1.966913014938406
aF0.601214949173273
aa(lp6
F2.7318968010465525
aF3.257986851175125
aF1.481924443541157
aF-3.9310165114810243
aF1.8877998620847727
aF2.802235727785945
aa(lp7
F2.7247218831497726
aF3.0895031286763066
aF1.2204684713979095
aF-4.098276490506247
aF2.0986640647550168
aF3.231127933100592
aa(lp8
F2.8980105126266302
aF3.168638800876259
aF0.9665202303414988
aF-4.604873042396335
aF1.9168290246853417
aF3.8198544265053567
aa(lp9
F2.9227898048763805
aF3.2368943582910594
aF0.815356981147394
aF-4.680611696256703
aF1.7422231675939237
aF4.112395589523836
aa(lp10
F2.7801190836398106
aF3.285590540681808
aF1.4799044768062917
aF-4.004998277065734
aF1.8783549286415884
aF3.390484204498426
aa(lp11
F-0.3004768663069495
aF1.1480004989158834
aF0.6816119947262305
aF-4.378200978383921
aF4.7701497058261095
aF1.1705663755908446
aa(lp12
F2.82644705291192
aF3.806460874100722
aF0.6765817871860236
aF-5.039732798313938
aF1.0866409148032172
aF1.602521007380962
aa(lp13
F2.934184441414052
aF3.4421582904074794
aF0.7210092622013873
aF-4.890689180158549
aF1.5386464757520715
aF4.39075524090583
aa(lp14
F2.915566987910113
aF3.5878268202714345
aF0.7599921880806884
aF-4.82972704108651
aF1.3587554824842014
aF4.523884928654329
aa.